target datalayout = "e-m:e-p270:32:32-p271:32:32-p272:64:64-i64:64-i128:128-f80:128-n8:16:32:64-S128"
target triple = "x86_64-pc-linux-gnu"

%class.OopHandle = type { ptr }
%class.ObjectMonitor = type { %class.markWord, %class.WeakHandle, [48 x i8], ptr, i64, [48 x i8], ptr, i64, ptr, ptr, ptr, ptr, i32, i32, ptr, i32, i32 }
%class.markWord = type { i64 }
%class.WeakHandle = type { ptr }
%class.JavaThread = type { %class.Thread, i8, %class.OopHandle, %class.OopHandle, %class.OopHandle, %class.OopHandle, %class.JavaFrameAnchor, ptr, %struct.JNIEnv_, ptr, ptr, ptr, ptr, ptr, ptr, ptr, ptr, %class.MemRegion, ptr, i8, ptr, ptr, ptr, i32, i32, %"struct.SafepointMechanism::ThreadData", ptr, ptr, i32, i32, i8, i8, i8, i8, i8, i8, i8, i32, i8, i32, i8, i8, i64, %union.anon, ptr, ptr, i64, i64, ptr, ptr, %class.StackOverflow, ptr, ptr, ptr, i32, i32, ptr, i32, i32, i32, ptr, ptr, i32, i64, i64, %class.StackWatermarks, %class.HandshakeState, ptr, i32, ptr, i32, i32, ptr, %class.Parker, ptr, ptr, %class.LockStack }
%class.Thread = type { %class.ThreadShadow.base, i64, [43 x i64], ptr, ptr, i32, ptr, i64, i64, %class.ThreadLocalAllocBuffer, i64, %class.ThreadHeapSampler, %class.ThreadStatisticalInfo, %class.JfrThreadLocal, ptr, ptr, ptr, ptr, ptr, ptr, i64, i32, i32, ptr, i32, i32, i32, i32, i8, ptr }
%class.ThreadShadow.base = type <{ ptr, ptr, ptr, i32 }>
%class.ThreadLocalAllocBuffer = type <{ ptr, ptr, ptr, ptr, ptr, i64, i64, i64, i64, i32, i32, i32, i32, i64, %class.AdaptiveWeightedAverage, [4 x i8] }>
%class.AdaptiveWeightedAverage = type { float, i32, i32, i8, float }
%class.ThreadHeapSampler = type { i64 }
%class.ThreadStatisticalInfo = type { i64, i64 }
%class.JfrThreadLocal = type <{ ptr, ptr, ptr, ptr, ptr, ptr, ptr, ptr, ptr, ptr, %class.RefCountHandle, i64, i64, i64, i64, i64, i64, i64, i64, i64, i64, i64, i32, i32, i32, i16, i8, i8, i8, i8, i8, [5 x i8] }>
%class.RefCountHandle = type { ptr }
%class.JavaFrameAnchor = type { ptr, ptr, ptr }
%struct.JNIEnv_ = type { ptr }
%class.MemRegion = type { ptr, i64 }
%"struct.SafepointMechanism::ThreadData" = type { i64, i64 }
%union.anon = type { ptr }
%class.StackOverflow = type { i32, ptr, ptr, ptr, ptr, ptr, ptr }
%class.StackWatermarks = type { ptr }
%class.HandshakeState = type <{ ptr, %class.FilterQueue, %class.Monitor, ptr, i8, i8, i8, [5 x i8] }>
%class.FilterQueue = type { ptr }
%class.Monitor = type { %class.Mutex }
%class.Mutex = type { ptr, %class.PlatformMonitor, ptr }
%class.PlatformMonitor = type { %class.PlatformMutex, %union.pthread_cond_t }
%class.PlatformMutex = type { %union.pthread_mutex_t }
%union.pthread_mutex_t = type { %struct.__pthread_mutex_s }
%struct.__pthread_mutex_s = type { i32, i32, i32, i32, i32, i16, i16, %struct.__pthread_internal_list }
%struct.__pthread_internal_list = type { ptr, ptr }
%union.pthread_cond_t = type { %struct.__pthread_cond_s }
%struct.__pthread_cond_s = type { %union.__atomic_wide_counter, %union.__atomic_wide_counter, [2 x i32], [2 x i32], i32, i32, [2 x i32] }
%union.__atomic_wide_counter = type { i64 }
%class.Parker = type { %class.PlatformParker }
%class.PlatformParker = type { i32, i32, [1 x %union.pthread_mutex_t], [2 x %union.pthread_cond_t] }
%class.LockStack = type { i32, i64, [8 x ptr] }
%class.Handle = type { ptr }
%"struct.Atomic::PlatformLoad.16" = type { i8 }
%"struct.Atomic::LoadImpl.17" = type { i8 }

@LockingMode = external global i32, align 4
@.str.60 = private unnamed_addr constant [13 x i8] c"pre-contains\00", align 1
@.str.61 = private unnamed_addr constant [14 x i8] c"post-contains\00", align 1
@_ZN9LockStack22lock_stack_base_offsetE = external constant i32, align 4

; Function Attrs: mustprogress nounwind uwtable
define linkonce_odr hidden noundef ptr @_ZNK6Atomic12PlatformLoadILm8EEclIPvEET_PVKS4_(ptr noundef nonnull align 1 dereferenceable(1) %0, ptr noundef %1) #1 comdat align 2 {
  %3 = alloca ptr, align 8
  %4 = alloca ptr, align 8
  store ptr %0, ptr %3, align 8
  store ptr %1, ptr %4, align 8
  %5 = load ptr, ptr %4, align 8
  %6 = load volatile ptr, ptr %5, align 8
  ret ptr %6
}

; Function Attrs: mustprogress nounwind uwtable
define linkonce_odr hidden noundef ptr @_ZNK6Atomic8LoadImplIPvNS_12PlatformLoadILm8EEEvEclEPVKS1_(ptr noundef nonnull align 1 dereferenceable(1) %0, ptr noundef %1) #1 comdat align 2 {
  %3 = alloca ptr, align 8
  %4 = alloca ptr, align 8
  %5 = alloca %"struct.Atomic::PlatformLoad.16", align 1
  store ptr %0, ptr %3, align 8
  store ptr %1, ptr %4, align 8
  %6 = load ptr, ptr %4, align 8
  %7 = call noundef ptr @_ZNK6Atomic12PlatformLoadILm8EEclIPvEET_PVKS4_(ptr noundef nonnull align 1 dereferenceable(1) %5, ptr noundef %6)
  ret ptr %7
}

; Function Attrs: mustprogress nounwind uwtable
define linkonce_odr hidden noundef ptr @_ZN6Atomic4loadIPvEET_PVKS2_(ptr noundef %0) #1 comdat align 2 {
  %2 = alloca ptr, align 8
  %3 = alloca %"struct.Atomic::LoadImpl.17", align 1
  store ptr %0, ptr %2, align 8
  %4 = load ptr, ptr %2, align 8
  %5 = call noundef ptr @_ZNK6Atomic8LoadImplIPvNS_12PlatformLoadILm8EEEvEclEPVKS1_(ptr noundef nonnull align 1 dereferenceable(1) %3, ptr noundef %4)
  ret ptr %5
}

; Function Attrs: mustprogress nounwind uwtable
define linkonce_odr hidden noundef ptr @_ZN13ObjectMonitor14anon_owner_ptrEv() #1 comdat align 2 {
  ret ptr inttoptr (i64 1 to ptr)
}

; Function Attrs: mustprogress nounwind uwtable
define linkonce_odr hidden noundef ptr @_ZNK13ObjectMonitor9owner_rawEv(ptr noundef nonnull align 8 dereferenceable(200) %0) #1 comdat align 2 {
  %2 = alloca ptr, align 8
  store ptr %0, ptr %2, align 8
  %3 = load ptr, ptr %2, align 8
  %4 = getelementptr inbounds %class.ObjectMonitor, ptr %3, i32 0, i32 3
  %5 = call noundef ptr @_ZN6Atomic4loadIPvEET_PVKS2_(ptr noundef %4)
  ret ptr %5
}

; Function Attrs: mustprogress nounwind uwtable
define linkonce_odr hidden noundef zeroext i1 @_ZNK13ObjectMonitor18is_owner_anonymousEv(ptr noundef nonnull align 8 dereferenceable(200) %0) #1 comdat align 2 {
  %2 = alloca ptr, align 8
  store ptr %0, ptr %2, align 8
  %3 = load ptr, ptr %2, align 8
  %4 = call noundef ptr @_ZNK13ObjectMonitor9owner_rawEv(ptr noundef nonnull align 8 dereferenceable(200) %3)
  %5 = call noundef ptr @_ZN13ObjectMonitor14anon_owner_ptrEv()
  %6 = icmp eq ptr %4, %5
  ret i1 %6
}

; Function Attrs: mustprogress nounwind uwtable
define linkonce_odr hidden noundef i32 @_ZN9LockStack8to_indexEj(i32 noundef %0) #1 comdat align 2 {
  %2 = alloca i32, align 4
  store i32 %0, ptr %2, align 4
  %3 = load i32, ptr %2, align 4
  %4 = load i32, ptr @_ZN9LockStack22lock_stack_base_offsetE, align 4
  %5 = sub i32 %3, %4
  %6 = udiv i32 %5, 8
  ret i32 %6
}

; Function Attrs: mustprogress nounwind uwtable
define linkonce_odr hidden void @_ZNK9LockStack6verifyEPKc(ptr noundef nonnull align 8 dereferenceable(80) %0, ptr noundef %1) #1 comdat align 2 {
  %3 = alloca ptr, align 8
  %4 = alloca ptr, align 8
  store ptr %0, ptr %3, align 8
  store ptr %1, ptr %4, align 8
  ret void
}

; Function Attrs: mustprogress nounwind uwtable
define linkonce_odr hidden noundef i64 @_ZNK8markWord5valueEv(ptr noundef nonnull align 8 dereferenceable(8) %0) #1 comdat align 2 {
  %2 = alloca ptr, align 8
  store ptr %0, ptr %2, align 8
  %3 = load ptr, ptr %2, align 8
  %4 = getelementptr inbounds %class.markWord, ptr %3, i32 0, i32 0
  %5 = load i64, ptr %4, align 8
  ret i64 %5
}

; Function Attrs: mustprogress nounwind uwtable
define linkonce_odr hidden noundef ptr @_ZNK6Handle3objEv(ptr noundef nonnull align 8 dereferenceable(8) %0) #1 comdat align 2 {
  %2 = alloca ptr, align 8
  store ptr %0, ptr %2, align 8
  %3 = load ptr, ptr %2, align 8
  %4 = getelementptr inbounds %class.Handle, ptr %3, i32 0, i32 0
  %5 = load ptr, ptr %4, align 8
  %6 = icmp eq ptr %5, null
  br i1 %6, label %7, label %8

7:                                                ; preds = %1
  br label %12

8:                                                ; preds = %1
  %9 = getelementptr inbounds %class.Handle, ptr %3, i32 0, i32 0
  %10 = load ptr, ptr %9, align 8
  %11 = load ptr, ptr %10, align 8
  br label %12

12:                                               ; preds = %8, %7
  %13 = phi ptr [ null, %7 ], [ %11, %8 ]
  ret ptr %13
}

; Function Attrs: mustprogress nounwind uwtable
define linkonce_odr hidden noundef zeroext i1 @_ZNK13ObjectMonitor10is_enteredEP10JavaThread(ptr noundef nonnull align 8 dereferenceable(200) %0, ptr noundef %1) #1 comdat align 2 {
  %3 = alloca i1, align 1
  %4 = alloca ptr, align 8
  %5 = alloca ptr, align 8
  %6 = alloca ptr, align 8
  store ptr %0, ptr %4, align 8
  store ptr %1, ptr %5, align 8
  %7 = load ptr, ptr %4, align 8
  %8 = load i32, ptr @LockingMode, align 4
  %9 = icmp eq i32 %8, 2
  br i1 %9, label %10, label %21

10:                                               ; preds = %2
  %11 = call noundef zeroext i1 @_ZNK13ObjectMonitor18is_owner_anonymousEv(ptr noundef nonnull align 8 dereferenceable(200) %7)
  br i1 %11, label %12, label %17

12:                                               ; preds = %10
  %13 = load ptr, ptr %5, align 8
  %14 = call noundef nonnull align 8 dereferenceable(80) ptr @_ZN10JavaThread10lock_stackEv(ptr noundef nonnull align 8 dereferenceable(1800) %13)
  %15 = call noundef ptr @_ZNK13ObjectMonitor6objectEv(ptr noundef nonnull align 8 dereferenceable(200) %7)
  %16 = call noundef zeroext i1 @_ZNK9LockStack8containsEP7oopDesc(ptr noundef nonnull align 8 dereferenceable(80) %14, ptr noundef %15)
  store i1 %16, ptr %3, align 1
  br label %33

17:                                               ; preds = %10
  %18 = load ptr, ptr %5, align 8
  %19 = call noundef ptr @_ZNK13ObjectMonitor9owner_rawEv(ptr noundef nonnull align 8 dereferenceable(200) %7)
  %20 = icmp eq ptr %18, %19
  store i1 %20, ptr %3, align 1
  br label %33

21:                                               ; preds = %2
  %22 = call noundef ptr @_ZNK13ObjectMonitor9owner_rawEv(ptr noundef nonnull align 8 dereferenceable(200) %7)
  store ptr %22, ptr %6, align 8
  %23 = load ptr, ptr %5, align 8
  %24 = load ptr, ptr %6, align 8
  %25 = icmp eq ptr %23, %24
  br i1 %25, label %30, label %26

26:                                               ; preds = %21
  %27 = load ptr, ptr %5, align 8
  %28 = load ptr, ptr %6, align 8
  %29 = call noundef zeroext i1 @_ZNK10JavaThread13is_lock_ownedEPh(ptr noundef nonnull align 8 dereferenceable(1800) %27, ptr noundef %28)
  br i1 %29, label %30, label %31

30:                                               ; preds = %26, %21
  store i1 true, ptr %3, align 1
  br label %33

31:                                               ; preds = %26
  br label %32

32:                                               ; preds = %31
  store i1 false, ptr %3, align 1
  br label %33

33:                                               ; preds = %32, %30, %17, %12
  %34 = load i1, ptr %3, align 1
  ret i1 %34
}

; Function Attrs: mustprogress nounwind uwtable
define linkonce_odr hidden noundef ptr @_ZNK8markWord7monitorEv(ptr noundef nonnull align 8 dereferenceable(8) %0) #1 comdat align 2 {
  %2 = alloca ptr, align 8
  store ptr %0, ptr %2, align 8
  %3 = load ptr, ptr %2, align 8
  %4 = call noundef i64 @_ZNK8markWord5valueEv(ptr noundef nonnull align 8 dereferenceable(8) %3)
  %5 = xor i64 %4, 2
  %6 = inttoptr i64 %5 to ptr
  ret ptr %6
}

; Function Attrs: mustprogress nounwind uwtable
define linkonce_odr hidden noundef zeroext i1 @_ZNK8markWord11has_monitorEv(ptr noundef nonnull align 8 dereferenceable(8) %0) #1 comdat align 2 {
  %2 = alloca ptr, align 8
  store ptr %0, ptr %2, align 8
  %3 = load ptr, ptr %2, align 8
  %4 = call noundef i64 @_ZNK8markWord5valueEv(ptr noundef nonnull align 8 dereferenceable(8) %3)
  %5 = and i64 %4, 3
  %6 = icmp eq i64 %5, 2
  ret i1 %6
}

; Function Attrs: mustprogress nounwind uwtable
define linkonce_odr hidden noundef zeroext i1 @_ZNK9LockStack8containsEP7oopDesc(ptr noundef nonnull align 8 dereferenceable(80) %0, ptr noundef %1) #1 comdat align 2 {
  %3 = alloca i1, align 1
  %4 = alloca ptr, align 8
  %5 = alloca ptr, align 8
  %6 = alloca i32, align 4
  %7 = alloca i32, align 4
  store ptr %0, ptr %4, align 8
  store ptr %1, ptr %5, align 8
  %8 = load ptr, ptr %4, align 8
  call void @_ZNK9LockStack6verifyEPKc(ptr noundef nonnull align 8 dereferenceable(80) %8, ptr noundef @.str.60)
  %9 = getelementptr inbounds %class.LockStack, ptr %8, i32 0, i32 0
  %10 = load i32, ptr %9, align 8
  %11 = call noundef i32 @_ZN9LockStack8to_indexEj(i32 noundef %10)
  store i32 %11, ptr %6, align 4
  %12 = load i32, ptr %6, align 4
  %13 = sub nsw i32 %12, 1
  store i32 %13, ptr %7, align 4
  br label %14

14:                                               ; preds = %27, %2
  %15 = load i32, ptr %7, align 4
  %16 = icmp sge i32 %15, 0
  br i1 %16, label %17, label %30

17:                                               ; preds = %14
  %18 = getelementptr inbounds %class.LockStack, ptr %8, i32 0, i32 2
  %19 = load i32, ptr %7, align 4
  %20 = sext i32 %19 to i64
  %21 = getelementptr inbounds [8 x ptr], ptr %18, i64 0, i64 %20
  %22 = load ptr, ptr %21, align 8
  %23 = load ptr, ptr %5, align 8
  %24 = icmp eq ptr %22, %23
  br i1 %24, label %25, label %26

25:                                               ; preds = %17
  call void @_ZNK9LockStack6verifyEPKc(ptr noundef nonnull align 8 dereferenceable(80) %8, ptr noundef @.str.61)
  store i1 true, ptr %3, align 1
  br label %31

26:                                               ; preds = %17
  br label %27

27:                                               ; preds = %26
  %28 = load i32, ptr %7, align 4
  %29 = add nsw i32 %28, -1
  store i32 %29, ptr %7, align 4
  br label %14, !llvm.loop !17

30:                                               ; preds = %14
  call void @_ZNK9LockStack6verifyEPKc(ptr noundef nonnull align 8 dereferenceable(80) %8, ptr noundef @.str.61)
  store i1 false, ptr %3, align 1
  br label %31

31:                                               ; preds = %30, %25
  %32 = load i1, ptr %3, align 1
  ret i1 %32
}

; Function Attrs: mustprogress nounwind uwtable
define linkonce_odr hidden noundef nonnull align 8 dereferenceable(80) ptr @_ZN10JavaThread10lock_stackEv(ptr noundef nonnull align 8 dereferenceable(1800) %0) #1 comdat align 2 {
  %2 = alloca ptr, align 8
  store ptr %0, ptr %2, align 8
  %3 = load ptr, ptr %2, align 8
  %4 = getelementptr inbounds %class.JavaThread, ptr %3, i32 0, i32 76
  ret ptr %4
}

; Function Attrs: mustprogress nounwind uwtable
define linkonce_odr hidden noundef zeroext i1 @_ZNK8markWord14is_fast_lockedEv(ptr noundef nonnull align 8 dereferenceable(8) %0) #1 comdat align 2 {
  %2 = alloca ptr, align 8
  store ptr %0, ptr %2, align 8
  %3 = load ptr, ptr %2, align 8
  %4 = call noundef i64 @_ZNK8markWord5valueEv(ptr noundef nonnull align 8 dereferenceable(8) %3)
  %5 = and i64 %4, 3
  %6 = icmp eq i64 %5, 0
  ret i1 %6
}

; Function Attrs: mustprogress nounwind uwtable
define linkonce_odr hidden noundef ptr @_ZNK8markWord6lockerEv(ptr noundef nonnull align 8 dereferenceable(8) %0) #1 comdat align 2 {
  %2 = alloca ptr, align 8
  store ptr %0, ptr %2, align 8
  %3 = load ptr, ptr %2, align 8
  %4 = call noundef i64 @_ZNK8markWord5valueEv(ptr noundef nonnull align 8 dereferenceable(8) %3)
  %5 = inttoptr i64 %4 to ptr
  ret ptr %5
}

; Function Attrs: mustprogress nounwind uwtable
define linkonce_odr hidden noundef zeroext i1 @_ZNK8markWord10has_lockerEv(ptr noundef nonnull align 8 dereferenceable(8) %0) #1 comdat align 2 {
  %2 = alloca ptr, align 8
  store ptr %0, ptr %2, align 8
  %3 = load ptr, ptr %2, align 8
  %4 = call noundef i64 @_ZNK8markWord5valueEv(ptr noundef nonnull align 8 dereferenceable(8) %3)
  %5 = and i64 %4, 3
  %6 = icmp eq i64 %5, 0
  ret i1 %6
}

; Function Attrs: mustprogress nounwind uwtable
define linkonce_odr hidden noundef ptr @_ZNK6HandleclEv(ptr noundef nonnull align 8 dereferenceable(8) %0) #1 comdat align 2 {
  %2 = alloca ptr, align 8
  store ptr %0, ptr %2, align 8
  %3 = load ptr, ptr %2, align 8
  %4 = call noundef ptr @_ZNK6Handle3objEv(ptr noundef nonnull align 8 dereferenceable(8) %3)
  ret ptr %4
}

; Function Attrs: mustprogress nounwind uwtable
define hidden noundef zeroext i1 @_ZN18ObjectSynchronizer25current_thread_holds_lockEP10JavaThread6Handle(ptr noundef %0, ptr %1) #1 align 2 {
  %3 = alloca i1, align 1
  %4 = alloca %class.Handle, align 8
  %5 = alloca ptr, align 8
  %6 = alloca ptr, align 8
  %7 = alloca %class.markWord, align 8
  %8 = alloca ptr, align 8
  %9 = getelementptr inbounds %class.Handle, ptr %4, i32 0, i32 0
  store ptr %1, ptr %9, align 8
  store ptr %0, ptr %5, align 8
  %10 = call noundef ptr @_ZNK6HandleclEv(ptr noundef nonnull align 8 dereferenceable(8) %4)
  store ptr %10, ptr %6, align 8
  %11 = load ptr, ptr %6, align 8
  %12 = call i64 @_ZL16read_stable_markP7oopDesc(ptr noundef %11)
  %13 = getelementptr inbounds %class.markWord, ptr %7, i32 0, i32 0
  store i64 %12, ptr %13, align 8
  %14 = load i32, ptr @LockingMode, align 4
  %15 = icmp eq i32 %14, 1
  br i1 %15, label %16, label %22

16:                                               ; preds = %2
  %17 = call noundef zeroext i1 @_ZNK8markWord10has_lockerEv(ptr noundef nonnull align 8 dereferenceable(8) %7)
  br i1 %17, label %18, label %22

18:                                               ; preds = %16
  %19 = load ptr, ptr %5, align 8
  %20 = call noundef ptr @_ZNK8markWord6lockerEv(ptr noundef nonnull align 8 dereferenceable(8) %7)
  %21 = call noundef zeroext i1 @_ZNK10JavaThread13is_lock_ownedEPh(ptr noundef nonnull align 8 dereferenceable(1800) %19, ptr noundef %20)
  store i1 %21, ptr %3, align 1
  br label %42

22:                                               ; preds = %16, %2
  %23 = load i32, ptr @LockingMode, align 4
  %24 = icmp eq i32 %23, 2
  br i1 %24, label %25, label %32

25:                                               ; preds = %22
  %26 = call noundef zeroext i1 @_ZNK8markWord14is_fast_lockedEv(ptr noundef nonnull align 8 dereferenceable(8) %7)
  br i1 %26, label %27, label %32

27:                                               ; preds = %25
  %28 = load ptr, ptr %5, align 8
  %29 = call noundef nonnull align 8 dereferenceable(80) ptr @_ZN10JavaThread10lock_stackEv(ptr noundef nonnull align 8 dereferenceable(1800) %28)
  %30 = call noundef ptr @_ZNK6HandleclEv(ptr noundef nonnull align 8 dereferenceable(8) %4)
  %31 = call noundef zeroext i1 @_ZNK9LockStack8containsEP7oopDesc(ptr noundef nonnull align 8 dereferenceable(80) %29, ptr noundef %30)
  store i1 %31, ptr %3, align 1
  br label %42

32:                                               ; preds = %25, %22
  %33 = call noundef zeroext i1 @_ZNK8markWord11has_monitorEv(ptr noundef nonnull align 8 dereferenceable(8) %7)
  br i1 %33, label %34, label %41

34:                                               ; preds = %32
  %35 = call noundef ptr @_ZNK8markWord7monitorEv(ptr noundef nonnull align 8 dereferenceable(8) %7)
  store ptr %35, ptr %8, align 8
  %36 = load ptr, ptr %8, align 8
  %37 = load ptr, ptr %5, align 8
  %38 = call noundef zeroext i1 @_ZNK13ObjectMonitor10is_enteredEP10JavaThread(ptr noundef nonnull align 8 dereferenceable(200) %36, ptr noundef %37)
  %39 = zext i1 %38 to i32
  %40 = icmp ne i32 %39, 0
  store i1 %40, ptr %3, align 1
  br label %42

41:                                               ; preds = %32
  store i1 false, ptr %3, align 1
  br label %42

42:                                               ; preds = %41, %34, %27, %18
  %43 = load i1, ptr %3, align 1
  ret i1 %43
}