; Function Attrs: mustprogress nounwind uwtable
define hidden noundef zeroext i1 @_ZN18ObjectSynchronizer25current_thread_holds_lockEP10JavaThread6Handle(ptr noundef %0, ptr readonly %1) local_unnamed_addr #0 align 2 {
  %3 = icmp eq ptr %1, null
  br i1 %3, label %_ZNK6HandleclEv.exit, label %4

4:                                                ; preds = %2
  %5 = load ptr, ptr %1, align 8
  br label %_ZNK6HandleclEv.exit

_ZNK6HandleclEv.exit:                             ; preds = %2, %4
  %6 = phi ptr [ %5, %4 ], [ null, %2 ]
  %7 = tail call fastcc i64 @_ZL16read_stable_markP7oopDesc(ptr noundef %6)
  %8 = load i32, ptr @LockingMode, align 4
  %.pre = and i64 %7, 3
  switch i32 %8, label %.thread [
    i32 1, label %9
    i32 2, label %13
  ]

9:                                                ; preds = %_ZNK6HandleclEv.exit
  switch i64 %.pre, label %_ZNK9LockStack8containsEP7oopDesc.exit [
    i64 0, label %10
    i64 2, label %56
  ]

10:                                               ; preds = %9
  %11 = inttoptr i64 %7 to ptr
  %12 = tail call noundef zeroext i1 @_ZNK10JavaThread13is_lock_ownedEPh(ptr noundef nonnull align 8 dereferenceable(1800) %0, ptr noundef %11) #18
  br label %_ZNK9LockStack8containsEP7oopDesc.exit

13:                                               ; preds = %_ZNK6HandleclEv.exit
  switch i64 %.pre, label %_ZNK9LockStack8containsEP7oopDesc.exit [
    i64 0, label %14
    i64 2, label %32
  ]

14:                                               ; preds = %13
  %15 = getelementptr inbounds i8, ptr %0, i64 1720
  br i1 %3, label %_ZNK6HandleclEv.exit6, label %16

16:                                               ; preds = %14
  %17 = load ptr, ptr %1, align 8
  br label %_ZNK6HandleclEv.exit6

_ZNK6HandleclEv.exit6:                            ; preds = %14, %16
  %18 = phi ptr [ %17, %16 ], [ null, %14 ]
  %19 = load i32, ptr %15, align 8
  %20 = load i32, ptr @_ZN9LockStack22lock_stack_base_offsetE, align 4
  %21 = sub i32 %19, %20
  %22 = getelementptr inbounds i8, ptr %0, i64 1736
  %23 = lshr i32 %21, 3
  %24 = zext nneg i32 %23 to i64
  br label %25

25:                                               ; preds = %27, %_ZNK6HandleclEv.exit6
  %indvars.iv.i = phi i64 [ %indvars.iv.next.i, %27 ], [ %24, %_ZNK6HandleclEv.exit6 ]
  %26 = icmp sgt i64 %indvars.iv.i, 0
  br i1 %26, label %27, label %_ZNK9LockStack8containsEP7oopDesc.exit

27:                                               ; preds = %25
  %indvars.iv.next.i = add nsw i64 %indvars.iv.i, -1
  %28 = getelementptr inbounds [8 x ptr], ptr %22, i64 0, i64 %indvars.iv.next.i
  %29 = load ptr, ptr %28, align 8
  %30 = icmp eq ptr %29, %18
  br i1 %30, label %_ZNK9LockStack8containsEP7oopDesc.exit, label %25, !llvm.loop !16

.thread:                                          ; preds = %_ZNK6HandleclEv.exit
  %31 = icmp eq i64 %.pre, 2
  br i1 %31, label %56, label %_ZNK9LockStack8containsEP7oopDesc.exit

32:                                               ; preds = %13
  %33 = and i64 %7, -4
  %34 = inttoptr i64 %33 to ptr
  %35 = getelementptr inbounds i8, ptr %34, i64 64
  %36 = load volatile ptr, ptr %35, align 8
  %37 = icmp eq ptr %36, inttoptr (i64 1 to ptr)
  br i1 %37, label %38, label %53

38:                                               ; preds = %32
  %39 = getelementptr inbounds i8, ptr %0, i64 1720
  %40 = tail call noundef ptr @_ZNK13ObjectMonitor6objectEv(ptr noundef nonnull align 8 dereferenceable(200) %34) #18
  %41 = load i32, ptr %39, align 8
  %42 = load i32, ptr @_ZN9LockStack22lock_stack_base_offsetE, align 4
  %43 = sub i32 %41, %42
  %44 = getelementptr inbounds i8, ptr %0, i64 1736
  %45 = lshr i32 %43, 3
  %46 = zext nneg i32 %45 to i64
  br label %47

47:                                               ; preds = %49, %38
  %indvars.iv.i.i = phi i64 [ %indvars.iv.next.i.i, %49 ], [ %46, %38 ]
  %48 = icmp sgt i64 %indvars.iv.i.i, 0
  br i1 %48, label %49, label %_ZNK9LockStack8containsEP7oopDesc.exit

49:                                               ; preds = %47
  %indvars.iv.next.i.i = add nsw i64 %indvars.iv.i.i, -1
  %50 = getelementptr inbounds [8 x ptr], ptr %44, i64 0, i64 %indvars.iv.next.i.i
  %51 = load ptr, ptr %50, align 8
  %52 = icmp eq ptr %51, %40
  br i1 %52, label %_ZNK9LockStack8containsEP7oopDesc.exit, label %47, !llvm.loop !16

53:                                               ; preds = %32
  %54 = load volatile ptr, ptr %35, align 8
  %55 = icmp eq ptr %54, %0
  br label %_ZNK9LockStack8containsEP7oopDesc.exit

56:                                               ; preds = %9, %.thread
  %57 = and i64 %7, -4
  %58 = inttoptr i64 %57 to ptr
  %59 = getelementptr inbounds i8, ptr %58, i64 64
  %60 = load volatile ptr, ptr %59, align 8
  %61 = icmp eq ptr %60, %0
  br i1 %61, label %_ZNK9LockStack8containsEP7oopDesc.exit, label %62

62:                                               ; preds = %56
  %63 = tail call noundef zeroext i1 @_ZNK10JavaThread13is_lock_ownedEPh(ptr noundef nonnull align 8 dereferenceable(1800) %0, ptr noundef %60) #18
  br label %_ZNK9LockStack8containsEP7oopDesc.exit

_ZNK9LockStack8containsEP7oopDesc.exit:           ; preds = %49, %47, %27, %25, %9, %13, %62, %56, %53, %.thread, %10
  %.0 = phi i1 [ %12, %10 ], [ false, %.thread ], [ %55, %53 ], [ true, %56 ], [ %63, %62 ], [ false, %13 ], [ false, %9 ], [ %26, %25 ], [ %26, %27 ], [ %48, %47 ], [ %48, %49 ]
  ret i1 %.0
}